target datalayout = "e-m:e-p270:32:32-p271:32:32-p272:64:64-i64:64-i128:128-f80:128-n8:16:32:64-S128"
target triple = "x86_64-pc-linux-gnu"

; Function Attrs: nounwind uwtable
define internal ptr @lu_float_complex(ptr noundef %0, ptr noundef %1, ptr noundef %2) #0 {
  %4 = alloca ptr, align 8
  %5 = alloca ptr, align 8
  %6 = alloca ptr, align 8
  %7 = alloca ptr, align 8
  %8 = alloca double, align 8
  %9 = alloca i32, align 4
  %10 = alloca double, align 8
  store ptr %0, ptr %5, align 8, !tbaa !8
  store ptr %1, ptr %6, align 8, !tbaa !43
  store ptr %2, ptr %7, align 8, !tbaa !49
  call void @llvm.lifetime.start.p0(i64 8, ptr %8) #8
  %11 = load ptr, ptr %6, align 8, !tbaa !43
  %12 = call double @PyFloat_Unpack4(ptr noundef %11, i32 noundef 1)
  store double %12, ptr %8, align 8, !tbaa !99
  %13 = load double, ptr %8, align 8, !tbaa !99
  %14 = fcmp oeq double %13, -1.000000e+00
  br i1 %14, label %15, label %19

15:                                               ; preds = %3
  %16 = call ptr @PyErr_Occurred()
  %17 = icmp ne ptr %16, null
  br i1 %17, label %18, label %19

18:                                               ; preds = %15
  store ptr null, ptr %4, align 8
  store i32 1, ptr %9, align 4
  br label %34

19:                                               ; preds = %15, %3
  call void @llvm.lifetime.start.p0(i64 8, ptr %10) #8
  %20 = load ptr, ptr %6, align 8, !tbaa !43
  %21 = getelementptr i8, ptr %20, i64 4
  %22 = call double @PyFloat_Unpack4(ptr noundef %21, i32 noundef 1)
  store double %22, ptr %10, align 8, !tbaa !99
  %23 = load double, ptr %10, align 8, !tbaa !99
  %24 = fcmp oeq double %23, -1.000000e+00
  br i1 %24, label %25, label %29

25:                                               ; preds = %19
  %26 = call ptr @PyErr_Occurred()
  %27 = icmp ne ptr %26, null
  br i1 %27, label %28, label %29

28:                                               ; preds = %25
  store ptr null, ptr %4, align 8
  store i32 1, ptr %9, align 4
  br label %33

29:                                               ; preds = %25, %19
  %30 = load double, ptr %8, align 8, !tbaa !99
  %31 = load double, ptr %10, align 8, !tbaa !99
  %32 = call ptr @PyComplex_FromDoubles(double noundef %30, double noundef %31)
  store ptr %32, ptr %4, align 8
  store i32 1, ptr %9, align 4
  br label %33

33:                                               ; preds = %29, %28
  call void @llvm.lifetime.end.p0(i64 8, ptr %10) #8
  br label %34

34:                                               ; preds = %33, %18
  call void @llvm.lifetime.end.p0(i64 8, ptr %8) #8
  %35 = load ptr, ptr %4, align 8
  ret ptr %35
}