; Function Attrs: nounwind uwtable
define internal ptr @lu_float_complex(ptr readnone captures(none) %0, ptr noundef %1, ptr readnone captures(none) %2) #0 {
  %4 = tail call double @PyFloat_Unpack4(ptr noundef %1, i32 noundef 1) #7
  %5 = fcmp oeq double %4, -1.000000e+00
  br i1 %5, label %6, label %8

6:                                                ; preds = %3
  %7 = tail call ptr @PyErr_Occurred() #7
  %.not = icmp eq ptr %7, null
  br i1 %.not, label %8, label %16

8:                                                ; preds = %6, %3
  %9 = getelementptr i8, ptr %1, i64 4
  %10 = tail call double @PyFloat_Unpack4(ptr noundef %9, i32 noundef 1) #7
  %11 = fcmp oeq double %10, -1.000000e+00
  br i1 %11, label %12, label %14

12:                                               ; preds = %8
  %13 = tail call ptr @PyErr_Occurred() #7
  %.not7 = icmp eq ptr %13, null
  br i1 %.not7, label %14, label %16

14:                                               ; preds = %12, %8
  %15 = tail call ptr @PyComplex_FromDoubles(double noundef %4, double noundef %10) #7
  br label %16

16:                                               ; preds = %14, %12, %6
  %.0 = phi ptr [ null, %6 ], [ %15, %14 ], [ null, %12 ]
  ret ptr %.0
}